target datalayout = "e-m:e-p270:32:32-p271:32:32-p272:64:64-i64:64-i128:128-f80:128-n8:16:32:64-S128"
target triple = "x86_64-unknown-linux-gnu"

%"class.sat::literal" = type { i32 }
%class.svector.5 = type { %class.vector.6 }
%class.vector.6 = type { ptr }
%"class.pb::solver" = type <{ %"class.euf::th_solver", %"class.pb::solver_interface", ptr, %class.pb_util, ptr, ptr, %"struct.pb::solver::stats", [4 x i8], %class.small_object_allocator, %class.ptr_vector.3, %class.ptr_vector.3, %class.ptr_vector.3, %class.svector.5, i32, i32, i32, i32, %class.svector.7, %class.svector.5, i32, [4 x i8], %class.tracked_uint_set, %class.svector.11, %class.svector.11, i32, [4 x i8], %class.svector.5, %class.svector.11, %class.svector.5, %"struct.pb::solver::ba_sort", %class.psort_nw, %class.vector.13, %"class.sat::use_list", i8, i8, i8, [5 x i8], %class.svector.11, %class.svector.15, %class.svector.5, %class.svector.17, i32, i8, [3 x i8], %"struct.pb::solver::ineq", %"struct.pb::solver::ineq", %"struct.pb::solver::ineq", i8, [7 x i8] }>
%"class.euf::th_solver" = type { %"class.sat::extension", %"class.euf::th_model_builder", %"class.euf::th_decompile", %"class.euf::th_internalizer", ptr }
%"class.sat::extension" = type { ptr, i8, i32, %class.symbol, ptr }
%class.symbol = type { ptr }
%"class.euf::th_model_builder" = type { ptr }
%"class.euf::th_decompile" = type { ptr }
%"class.euf::th_internalizer" = type { ptr, %class.ptr_vector, %class.svector }
%class.ptr_vector = type { %class.vector }
%class.vector = type { ptr }
%class.svector = type { %class.vector.0 }
%class.vector.0 = type { ptr }
%"class.pb::solver_interface" = type { ptr }
%class.pb_util = type { ptr, i32, %class.vector.1, %class.vector.2, %class.rational }
%class.vector.1 = type { ptr }
%class.vector.2 = type { ptr }
%class.rational = type { %class.mpq }
%class.mpq = type { %class.mpz, %class.mpz }
%class.mpz = type { i32, i8, ptr }
%"struct.pb::solver::stats" = type { i32, i32, i32, i32, i32, i32, i32, i32, i32, i32, i32 }
%class.small_object_allocator = type { [32 x ptr], [32 x ptr], i64 }
%class.ptr_vector.3 = type { %class.vector.4 }
%class.vector.4 = type { ptr }
%class.svector.7 = type { %class.vector.8 }
%class.vector.8 = type { ptr }
%class.tracked_uint_set = type { %class.svector.9, %class.svector.5 }
%class.svector.9 = type { %class.vector.10 }
%class.vector.10 = type { ptr }
%"struct.pb::solver::ba_sort" = type { ptr, %"class.sat::literal", %class.svector.11 }
%class.psort_nw = type { %struct.sorting_network_config, ptr, i32, %"struct.psort_nw<pb::solver::ba_sort>::stats" }
%struct.sorting_network_config = type { i32 }
%"struct.psort_nw<pb::solver::ba_sort>::stats" = type { i32, i32, i32 }
%class.vector.13 = type { ptr }
%"class.sat::use_list" = type { %class.vector.14 }
%class.vector.14 = type { ptr }
%class.svector.11 = type { %class.vector.12 }
%class.vector.12 = type { ptr }
%class.svector.15 = type { %class.vector.16 }
%class.vector.16 = type { ptr }
%class.svector.17 = type { %class.vector.18 }
%class.vector.18 = type { ptr }
%"struct.pb::solver::ineq" = type { %class.svector.17, i64 }
%"class.pb::constraint" = type { ptr, i32, i8, %"class.sat::literal", %"class.sat::literal", i32, i32, i32, i64, i8, i32, i8, i32 }

; Function Attrs: mustprogress nounwind uwtable
define linkonce_odr hidden noundef i64 @_ZN3sat15constraint_base8ext_sizeEv() #4 comdat align 2 {
entry:
  ret i64 8
}

; Function Attrs: mustprogress nounwind uwtable
define linkonce_odr hidden noundef ptr @_ZN3sat15constraint_base12mem2base_ptrEPv(ptr noundef %mem) #4 comdat align 2 {
entry:
  %mem.addr = alloca ptr, align 8
  store ptr %mem, ptr %mem.addr, align 8
  %0 = load ptr, ptr %mem.addr, align 8
  %call = call noundef i64 @_ZN3sat15constraint_base8ext_sizeEv()
  %idx.neg = sub i64 0, %call
  %add.ptr = getelementptr inbounds i8, ptr %0, i64 %idx.neg
  ret ptr %add.ptr
}

; Function Attrs: mustprogress nounwind uwtable
define linkonce_odr hidden noundef i64 @_ZNK2pb10constraint8obj_sizeEv(ptr noundef nonnull align 8 dereferenceable(64) %this) #4 comdat align 2 {
entry:
  %this.addr = alloca ptr, align 8
  store ptr %this, ptr %this.addr, align 8
  %this1 = load ptr, ptr %this.addr, align 8
  %m_obj_size = getelementptr inbounds %"class.pb::constraint", ptr %this1, i32 0, i32 8
  %0 = load i64, ptr %m_obj_size, align 8
  ret i64 %0
}

; Function Attrs: mustprogress nounwind uwtable
define linkonce_odr hidden noundef i32 @_ZNK6vectorIPN2pb10constraintELb0EjE4sizeEv(ptr noundef nonnull align 8 dereferenceable(8) %this) #4 comdat align 2 {
entry:
  %retval = alloca i32, align 4
  %this.addr = alloca ptr, align 8
  store ptr %this, ptr %this.addr, align 8
  %this1 = load ptr, ptr %this.addr, align 8
  %m_data = getelementptr inbounds %class.vector.4, ptr %this1, i32 0, i32 0
  %0 = load ptr, ptr %m_data, align 8
  %cmp = icmp eq ptr %0, null
  br i1 %cmp, label %if.then, label %if.end

if.then:                                          ; preds = %entry
  store i32 0, ptr %retval, align 4
  br label %return

if.end:                                           ; preds = %entry
  %m_data2 = getelementptr inbounds %class.vector.4, ptr %this1, i32 0, i32 0
  %1 = load ptr, ptr %m_data2, align 8
  %arrayidx = getelementptr inbounds i32, ptr %1, i64 -1
  %2 = load i32, ptr %arrayidx, align 4
  store i32 %2, ptr %retval, align 4
  br label %return

return:                                           ; preds = %if.end, %if.then
  %3 = load i32, ptr %retval, align 4
  ret i32 %3
}

; Function Attrs: mustprogress nounwind uwtable
define linkonce_odr hidden void @_ZN6vectorIPN2pb10constraintELb0EjE7set_endEPS2_(ptr noundef nonnull align 8 dereferenceable(8) %this, ptr noundef %it) #4 comdat align 2 {
entry:
  %this.addr = alloca ptr, align 8
  %it.addr = alloca ptr, align 8
  %new_sz = alloca i32, align 4
  store ptr %this, ptr %this.addr, align 8
  store ptr %it, ptr %it.addr, align 8
  %this1 = load ptr, ptr %this.addr, align 8
  %m_data = getelementptr inbounds %class.vector.4, ptr %this1, i32 0, i32 0
  %0 = load ptr, ptr %m_data, align 8
  %tobool = icmp ne ptr %0, null
  br i1 %tobool, label %if.then, label %if.else

if.then:                                          ; preds = %entry
  %1 = load ptr, ptr %it.addr, align 8
  %m_data2 = getelementptr inbounds %class.vector.4, ptr %this1, i32 0, i32 0
  %2 = load ptr, ptr %m_data2, align 8
  %sub.ptr.lhs.cast = ptrtoint ptr %1 to i64
  %sub.ptr.rhs.cast = ptrtoint ptr %2 to i64
  %sub.ptr.sub = sub i64 %sub.ptr.lhs.cast, %sub.ptr.rhs.cast
  %sub.ptr.div = sdiv exact i64 %sub.ptr.sub, 8
  %conv = trunc i64 %sub.ptr.div to i32
  store i32 %conv, ptr %new_sz, align 4
  %3 = load i32, ptr %new_sz, align 4
  %m_data3 = getelementptr inbounds %class.vector.4, ptr %this1, i32 0, i32 0
  %4 = load ptr, ptr %m_data3, align 8
  %arrayidx = getelementptr inbounds i32, ptr %4, i64 -1
  store i32 %3, ptr %arrayidx, align 4
  br label %if.end

if.else:                                          ; preds = %entry
  br label %if.end

if.end:                                           ; preds = %if.else, %if.then
  ret void
}

; Function Attrs: mustprogress uwtable
define linkonce_odr hidden noundef nonnull align 8 dereferenceable(8) ptr @_ZN6vectorIPN2pb10constraintELb0EjE9push_backEOS2_(ptr noundef nonnull align 8 dereferenceable(8) %this, ptr noundef nonnull align 8 dereferenceable(8) %elem) #5 comdat align 2 {
entry:
  %this.addr = alloca ptr, align 8
  %elem.addr = alloca ptr, align 8
  store ptr %this, ptr %this.addr, align 8
  store ptr %elem, ptr %elem.addr, align 8
  %this1 = load ptr, ptr %this.addr, align 8
  %m_data = getelementptr inbounds %class.vector.4, ptr %this1, i32 0, i32 0
  %0 = load ptr, ptr %m_data, align 8
  %cmp = icmp eq ptr %0, null
  br i1 %cmp, label %if.then, label %lor.lhs.false

lor.lhs.false:                                    ; preds = %entry
  %m_data2 = getelementptr inbounds %class.vector.4, ptr %this1, i32 0, i32 0
  %1 = load ptr, ptr %m_data2, align 8
  %arrayidx = getelementptr inbounds i32, ptr %1, i64 -1
  %2 = load i32, ptr %arrayidx, align 4
  %m_data3 = getelementptr inbounds %class.vector.4, ptr %this1, i32 0, i32 0
  %3 = load ptr, ptr %m_data3, align 8
  %arrayidx4 = getelementptr inbounds i32, ptr %3, i64 -2
  %4 = load i32, ptr %arrayidx4, align 4
  %cmp5 = icmp eq i32 %2, %4
  br i1 %cmp5, label %if.then, label %if.end

if.then:                                          ; preds = %lor.lhs.false, %entry
  call void @_ZN6vectorIPN2pb10constraintELb0EjE13expand_vectorEv(ptr noundef nonnull align 8 dereferenceable(8) %this1)
  br label %if.end

if.end:                                           ; preds = %if.then, %lor.lhs.false
  %m_data6 = getelementptr inbounds %class.vector.4, ptr %this1, i32 0, i32 0
  %5 = load ptr, ptr %m_data6, align 8
  %m_data7 = getelementptr inbounds %class.vector.4, ptr %this1, i32 0, i32 0
  %6 = load ptr, ptr %m_data7, align 8
  %arrayidx8 = getelementptr inbounds i32, ptr %6, i64 -1
  %7 = load i32, ptr %arrayidx8, align 4
  %idx.ext = zext i32 %7 to i64
  %add.ptr = getelementptr inbounds ptr, ptr %5, i64 %idx.ext
  %8 = load ptr, ptr %elem.addr, align 8
  %9 = load ptr, ptr %8, align 8
  store ptr %9, ptr %add.ptr, align 8
  %m_data9 = getelementptr inbounds %class.vector.4, ptr %this1, i32 0, i32 0
  %10 = load ptr, ptr %m_data9, align 8
  %arrayidx10 = getelementptr inbounds i32, ptr %10, i64 -1
  %11 = load i32, ptr %arrayidx10, align 4
  %inc = add i32 %11, 1
  store i32 %inc, ptr %arrayidx10, align 4
  ret ptr %this1
}

; Function Attrs: mustprogress nounwind uwtable
define linkonce_odr hidden noundef zeroext i1 @_ZNK2pb10constraint7learnedEv(ptr noundef nonnull align 8 dereferenceable(64) %this) #4 comdat align 2 {
entry:
  %this.addr = alloca ptr, align 8
  store ptr %this, ptr %this.addr, align 8
  %this1 = load ptr, ptr %this.addr, align 8
  %m_learned = getelementptr inbounds %"class.pb::constraint", ptr %this1, i32 0, i32 9
  %0 = load i8, ptr %m_learned, align 8
  %tobool = trunc i8 %0 to i1
  ret i1 %tobool
}

; Function Attrs: mustprogress uwtable
define linkonce_odr hidden void @_ZN2pb10constraint10deallocateER22small_object_allocator(ptr noundef nonnull align 8 dereferenceable(64) %this, ptr noundef nonnull align 8 dereferenceable(520) %a) #5 comdat align 2 {
entry:
  %this.addr = alloca ptr, align 8
  %a.addr = alloca ptr, align 8
  store ptr %this, ptr %this.addr, align 8
  store ptr %a, ptr %a.addr, align 8
  %this1 = load ptr, ptr %this.addr, align 8
  %0 = load ptr, ptr %a.addr, align 8
  %call = call noundef i64 @_ZNK2pb10constraint8obj_sizeEv(ptr noundef nonnull align 8 dereferenceable(64) %this1)
  %call2 = call noundef ptr @_ZN3sat15constraint_base12mem2base_ptrEPv(ptr noundef %this1)
  call void @_ZN22small_object_allocator10deallocateEmPv(ptr noundef nonnull align 8 dereferenceable(520) %0, i64 noundef %call, ptr noundef %call2)
  ret void
}

; Function Attrs: mustprogress uwtable
define hidden void @_ZN2pb6solver11clear_watchERNS_10constraintE(ptr noundef nonnull align 8 dereferenceable(1049) %this, ptr noundef nonnull align 8 dereferenceable(64) %c) #5 align 2 {
entry:
  %this.addr = alloca ptr, align 8
  %c.addr = alloca ptr, align 8
  store ptr %this, ptr %this.addr, align 8
  store ptr %c, ptr %c.addr, align 8
  %this1 = load ptr, ptr %this.addr, align 8
  %0 = load ptr, ptr %c.addr, align 8
  %add.ptr = getelementptr inbounds i8, ptr %this1, i64 80
  %vtable = load ptr, ptr %0, align 8
  %vfn = getelementptr inbounds ptr, ptr %vtable, i64 2
  %1 = load ptr, ptr %vfn, align 8
  call void %1(ptr noundef nonnull align 8 dereferenceable(64) %0, ptr noundef nonnull align 8 dereferenceable(8) %add.ptr)
  ret void
}

; Function Attrs: mustprogress nounwind uwtable
define linkonce_odr hidden noundef zeroext i1 @_ZNK2pb10constraint11was_removedEv(ptr noundef nonnull align 8 dereferenceable(64) %this) #4 comdat align 2 {
entry:
  %this.addr = alloca ptr, align 8
  store ptr %this, ptr %this.addr, align 8
  %this1 = load ptr, ptr %this.addr, align 8
  %m_removed = getelementptr inbounds %"class.pb::constraint", ptr %this1, i32 0, i32 2
  %0 = load i8, ptr %m_removed, align 4
  %tobool = trunc i8 %0 to i1
  ret i1 %tobool
}

; Function Attrs: mustprogress nounwind uwtable
define linkonce_odr hidden noundef ptr @_ZN6vectorIPN2pb10constraintELb0EjE3endEv(ptr noundef nonnull align 8 dereferenceable(8) %this) #4 comdat align 2 {
entry:
  %this.addr = alloca ptr, align 8
  store ptr %this, ptr %this.addr, align 8
  %this1 = load ptr, ptr %this.addr, align 8
  %m_data = getelementptr inbounds %class.vector.4, ptr %this1, i32 0, i32 0
  %0 = load ptr, ptr %m_data, align 8
  %call = call noundef i32 @_ZNK6vectorIPN2pb10constraintELb0EjE4sizeEv(ptr noundef nonnull align 8 dereferenceable(8) %this1)
  %idx.ext = zext i32 %call to i64
  %add.ptr = getelementptr inbounds ptr, ptr %0, i64 %idx.ext
  ret ptr %add.ptr
}

; Function Attrs: mustprogress nounwind uwtable
define linkonce_odr hidden noundef ptr @_ZN6vectorIPN2pb10constraintELb0EjE5beginEv(ptr noundef nonnull align 8 dereferenceable(8) %this) #4 comdat align 2 {
entry:
  %this.addr = alloca ptr, align 8
  store ptr %this, ptr %this.addr, align 8
  %this1 = load ptr, ptr %this.addr, align 8
  %m_data = getelementptr inbounds %class.vector.4, ptr %this1, i32 0, i32 0
  %0 = load ptr, ptr %m_data, align 8
  ret ptr %0
}

; Function Attrs: mustprogress uwtable
define hidden void @_ZN2pb6solver19cleanup_constraintsER10ptr_vectorINS_10constraintEEb(ptr noundef nonnull align 8 dereferenceable(1049) %this, ptr noundef nonnull align 8 dereferenceable(8) %cs, i1 noundef zeroext %learned) #5 align 2 {
entry:
  %this.addr = alloca ptr, align 8
  %cs.addr = alloca ptr, align 8
  %learned.addr = alloca i8, align 1
  %it = alloca ptr, align 8
  %it2 = alloca ptr, align 8
  %end = alloca ptr, align 8
  %c = alloca ptr, align 8
  %ref.tmp = alloca ptr, align 8
  store ptr %this, ptr %this.addr, align 8
  store ptr %cs, ptr %cs.addr, align 8
  %frombool = zext i1 %learned to i8
  store i8 %frombool, ptr %learned.addr, align 1
  %this1 = load ptr, ptr %this.addr, align 8
  %0 = load ptr, ptr %cs.addr, align 8
  %call = call noundef ptr @_ZN6vectorIPN2pb10constraintELb0EjE5beginEv(ptr noundef nonnull align 8 dereferenceable(8) %0)
  store ptr %call, ptr %it, align 8
  %1 = load ptr, ptr %it, align 8
  store ptr %1, ptr %it2, align 8
  %2 = load ptr, ptr %cs.addr, align 8
  %call2 = call noundef ptr @_ZN6vectorIPN2pb10constraintELb0EjE3endEv(ptr noundef nonnull align 8 dereferenceable(8) %2)
  store ptr %call2, ptr %end, align 8
  br label %for.cond

for.cond:                                         ; preds = %for.inc, %entry
  %3 = load ptr, ptr %it, align 8
  %4 = load ptr, ptr %end, align 8
  %cmp = icmp ne ptr %3, %4
  br i1 %cmp, label %for.body, label %for.end

for.body:                                         ; preds = %for.cond
  %5 = load ptr, ptr %it, align 8
  %6 = load ptr, ptr %5, align 8
  store ptr %6, ptr %c, align 8
  %7 = load ptr, ptr %c, align 8
  %call3 = call noundef zeroext i1 @_ZNK2pb10constraint11was_removedEv(ptr noundef nonnull align 8 dereferenceable(64) %7)
  br i1 %call3, label %if.then, label %if.else

if.then:                                          ; preds = %for.body
  %8 = load ptr, ptr %c, align 8
  call void @_ZN2pb6solver11clear_watchERNS_10constraintE(ptr noundef nonnull align 8 dereferenceable(1049) %this1, ptr noundef nonnull align 8 dereferenceable(64) %8)
  %9 = load ptr, ptr %c, align 8
  %add.ptr = getelementptr inbounds i8, ptr %this1, i64 80
  call void @_ZN2pb10constraint24nullify_tracking_literalERNS_16solver_interfaceE(ptr noundef nonnull align 8 dereferenceable(64) %9, ptr noundef nonnull align 8 dereferenceable(8) %add.ptr)
  %10 = load ptr, ptr %c, align 8
  %m_allocator = getelementptr inbounds %"class.pb::solver", ptr %this1, i32 0, i32 8
  call void @_ZN2pb10constraint10deallocateER22small_object_allocator(ptr noundef nonnull align 8 dereferenceable(64) %10, ptr noundef nonnull align 8 dereferenceable(520) %m_allocator)
  br label %if.end11

if.else:                                          ; preds = %for.body
  %11 = load i8, ptr %learned.addr, align 1
  %tobool = trunc i8 %11 to i1
  br i1 %tobool, label %land.lhs.true, label %if.else7

land.lhs.true:                                    ; preds = %if.else
  %12 = load ptr, ptr %c, align 8
  %call4 = call noundef zeroext i1 @_ZNK2pb10constraint7learnedEv(ptr noundef nonnull align 8 dereferenceable(64) %12)
  br i1 %call4, label %if.else7, label %if.then5

if.then5:                                         ; preds = %land.lhs.true
  %m_constraints = getelementptr inbounds %"class.pb::solver", ptr %this1, i32 0, i32 9
  %13 = load ptr, ptr %c, align 8
  store ptr %13, ptr %ref.tmp, align 8
  %call6 = call noundef nonnull align 8 dereferenceable(8) ptr @_ZN6vectorIPN2pb10constraintELb0EjE9push_backEOS2_(ptr noundef nonnull align 8 dereferenceable(8) %m_constraints, ptr noundef nonnull align 8 dereferenceable(8) %ref.tmp)
  br label %if.end10

if.else7:                                         ; preds = %land.lhs.true, %if.else
  %14 = load ptr, ptr %it, align 8
  %15 = load ptr, ptr %it2, align 8
  %cmp8 = icmp ne ptr %14, %15
  br i1 %cmp8, label %if.then9, label %if.end

if.then9:                                         ; preds = %if.else7
  %16 = load ptr, ptr %it, align 8
  %17 = load ptr, ptr %16, align 8
  %18 = load ptr, ptr %it2, align 8
  store ptr %17, ptr %18, align 8
  br label %if.end

if.end:                                           ; preds = %if.then9, %if.else7
  %19 = load ptr, ptr %it2, align 8
  %incdec.ptr = getelementptr inbounds ptr, ptr %19, i32 1
  store ptr %incdec.ptr, ptr %it2, align 8
  br label %if.end10

if.end10:                                         ; preds = %if.end, %if.then5
  br label %if.end11

if.end11:                                         ; preds = %if.end10, %if.then
  br label %for.inc

for.inc:                                          ; preds = %if.end11
  %20 = load ptr, ptr %it, align 8
  %incdec.ptr12 = getelementptr inbounds ptr, ptr %20, i32 1
  store ptr %incdec.ptr12, ptr %it, align 8
  br label %for.cond, !llvm.loop !53

for.end:                                          ; preds = %for.cond
  %21 = load ptr, ptr %cs.addr, align 8
  %22 = load ptr, ptr %it2, align 8
  call void @_ZN6vectorIPN2pb10constraintELb0EjE7set_endEPS2_(ptr noundef nonnull align 8 dereferenceable(8) %21, ptr noundef %22)
  ret void
}