; Function Attrs: mustprogress uwtable
define hidden void @_ZN2pb6solver19cleanup_constraintsER10ptr_vectorINS_10constraintEEb(ptr noundef nonnull align 8 dereferenceable(1049) %this, ptr nocapture noundef nonnull readonly align 8 dereferenceable(8) %cs, i1 noundef zeroext %learned) local_unnamed_addr #3 align 2 {
entry:
  %0 = load ptr, ptr %cs, align 8
  %cmp.i.i = icmp eq ptr %0, null
  br i1 %cmp.i.i, label %_ZN6vectorIPN2pb10constraintELb0EjE7set_endEPS2_.exit, label %_ZN6vectorIPN2pb10constraintELb0EjE3endEv.exit

_ZN6vectorIPN2pb10constraintELb0EjE3endEv.exit:   ; preds = %entry
  %arrayidx.i.i = getelementptr inbounds i8, ptr %0, i64 -4
  %1 = load i32, ptr %arrayidx.i.i, align 4
  %2 = zext i32 %1 to i64
  %add.ptr.i = getelementptr inbounds ptr, ptr %0, i64 %2
  %cmp.not21 = icmp eq i32 %1, 0
  br i1 %cmp.not21, label %for.end, label %for.body.lr.ph

for.body.lr.ph:                                   ; preds = %_ZN6vectorIPN2pb10constraintELb0EjE3endEv.exit
  %add.ptr.i16 = getelementptr inbounds i8, ptr %this, i64 80
  %m_allocator = getelementptr inbounds i8, ptr %this, i64 224
  %m_constraints = getelementptr inbounds i8, ptr %this, i64 744
  br i1 %learned, label %for.body.us, label %for.body

for.body.us:                                      ; preds = %for.body.lr.ph, %for.inc.us
  %it.023.us = phi ptr [ %incdec.ptr12.us, %for.inc.us ], [ %0, %for.body.lr.ph ]
  %it2.022.us = phi ptr [ %it2.1.us, %for.inc.us ], [ %0, %for.body.lr.ph ]
  %3 = load ptr, ptr %it.023.us, align 8
  %m_removed.i.us = getelementptr inbounds i8, ptr %3, i64 12
  %4 = load i8, ptr %m_removed.i.us, align 4
  %5 = and i8 %4, 1
  %tobool.i.not.us = icmp eq i8 %5, 0
  br i1 %tobool.i.not.us, label %if.else.us, label %if.then.us

if.then.us:                                       ; preds = %for.body.us
  %vtable.i.us = load ptr, ptr %3, align 8
  %vfn.i.us = getelementptr inbounds i8, ptr %vtable.i.us, i64 16
  %6 = load ptr, ptr %vfn.i.us, align 8
  tail call void %6(ptr noundef nonnull align 8 dereferenceable(64) %3, ptr noundef nonnull align 8 dereferenceable(8) %add.ptr.i16)
  tail call void @_ZN2pb10constraint24nullify_tracking_literalERNS_16solver_interfaceE(ptr noundef nonnull align 8 dereferenceable(64) %3, ptr noundef nonnull align 8 dereferenceable(8) %add.ptr.i16)
  %m_obj_size.i.i.us = getelementptr inbounds i8, ptr %3, i64 40
  %7 = load i64, ptr %m_obj_size.i.i.us, align 8
  %add.ptr.i.i.us = getelementptr inbounds i8, ptr %3, i64 -8
  tail call void @_ZN22small_object_allocator10deallocateEmPv(ptr noundef nonnull align 8 dereferenceable(520) %m_allocator, i64 noundef %7, ptr noundef nonnull %add.ptr.i.i.us)
  br label %for.inc.us

if.else.us:                                       ; preds = %for.body.us
  %m_learned.i.us = getelementptr inbounds i8, ptr %3, i64 48
  %8 = load i8, ptr %m_learned.i.us, align 8
  %9 = and i8 %8, 1
  %tobool.i17.not.us = icmp eq i8 %9, 0
  br i1 %tobool.i17.not.us, label %if.then5.us, label %if.else7.us

if.else7.us:                                      ; preds = %if.else.us
  %cmp8.not.us = icmp eq ptr %it.023.us, %it2.022.us
  br i1 %cmp8.not.us, label %if.end.us, label %if.then9.us

if.then9.us:                                      ; preds = %if.else7.us
  store ptr %3, ptr %it2.022.us, align 8
  br label %if.end.us

if.end.us:                                        ; preds = %if.then9.us, %if.else7.us
  %incdec.ptr.us = getelementptr inbounds i8, ptr %it2.022.us, i64 8
  br label %for.inc.us

if.then5.us:                                      ; preds = %if.else.us
  %10 = load ptr, ptr %m_constraints, align 8
  %cmp.i.us = icmp eq ptr %10, null
  br i1 %cmp.i.us, label %if.then.i.us, label %lor.lhs.false.i.us

lor.lhs.false.i.us:                               ; preds = %if.then5.us
  %arrayidx.i.us = getelementptr inbounds i8, ptr %10, i64 -4
  %11 = load i32, ptr %arrayidx.i.us, align 4
  %arrayidx4.i.us = getelementptr inbounds i8, ptr %10, i64 -8
  %12 = load i32, ptr %arrayidx4.i.us, align 4
  %cmp5.i.us = icmp eq i32 %11, %12
  br i1 %cmp5.i.us, label %if.then.i.us, label %_ZN6vectorIPN2pb10constraintELb0EjE9push_backEOS2_.exit.us

if.then.i.us:                                     ; preds = %lor.lhs.false.i.us, %if.then5.us
  tail call void @_ZN6vectorIPN2pb10constraintELb0EjE13expand_vectorEv(ptr noundef nonnull align 8 dereferenceable(8) %m_constraints)
  %.pre.i.us = load ptr, ptr %m_constraints, align 8
  %arrayidx8.phi.trans.insert.i.us = getelementptr inbounds i8, ptr %.pre.i.us, i64 -4
  %.pre1.i.us = load i32, ptr %arrayidx8.phi.trans.insert.i.us, align 4
  br label %_ZN6vectorIPN2pb10constraintELb0EjE9push_backEOS2_.exit.us

_ZN6vectorIPN2pb10constraintELb0EjE9push_backEOS2_.exit.us: ; preds = %if.then.i.us, %lor.lhs.false.i.us
  %13 = phi i32 [ %.pre1.i.us, %if.then.i.us ], [ %11, %lor.lhs.false.i.us ]
  %14 = phi ptr [ %.pre.i.us, %if.then.i.us ], [ %10, %lor.lhs.false.i.us ]
  %idx.ext.i.us = zext i32 %13 to i64
  %add.ptr.i18.us = getelementptr inbounds ptr, ptr %14, i64 %idx.ext.i.us
  store ptr %3, ptr %add.ptr.i18.us, align 8
  %15 = load ptr, ptr %m_constraints, align 8
  %arrayidx10.i.us = getelementptr inbounds i8, ptr %15, i64 -4
  %16 = load i32, ptr %arrayidx10.i.us, align 4
  %inc.i.us = add i32 %16, 1
  store i32 %inc.i.us, ptr %arrayidx10.i.us, align 4
  br label %for.inc.us

for.inc.us:                                       ; preds = %_ZN6vectorIPN2pb10constraintELb0EjE9push_backEOS2_.exit.us, %if.end.us, %if.then.us
  %it2.1.us = phi ptr [ %it2.022.us, %if.then.us ], [ %incdec.ptr.us, %if.end.us ], [ %it2.022.us, %_ZN6vectorIPN2pb10constraintELb0EjE9push_backEOS2_.exit.us ]
  %incdec.ptr12.us = getelementptr inbounds i8, ptr %it.023.us, i64 8
  %cmp.not.us = icmp eq ptr %incdec.ptr12.us, %add.ptr.i
  br i1 %cmp.not.us, label %for.end, label %for.body.us, !llvm.loop !104

for.body:                                         ; preds = %for.body.lr.ph, %for.inc
  %it.023 = phi ptr [ %incdec.ptr12, %for.inc ], [ %0, %for.body.lr.ph ]
  %it2.022 = phi ptr [ %it2.1, %for.inc ], [ %0, %for.body.lr.ph ]
  %17 = load ptr, ptr %it.023, align 8
  %m_removed.i = getelementptr inbounds i8, ptr %17, i64 12
  %18 = load i8, ptr %m_removed.i, align 4
  %19 = and i8 %18, 1
  %tobool.i.not = icmp eq i8 %19, 0
  br i1 %tobool.i.not, label %if.else, label %if.then

if.then:                                          ; preds = %for.body
  %vtable.i = load ptr, ptr %17, align 8
  %vfn.i = getelementptr inbounds i8, ptr %vtable.i, i64 16
  %20 = load ptr, ptr %vfn.i, align 8
  tail call void %20(ptr noundef nonnull align 8 dereferenceable(64) %17, ptr noundef nonnull align 8 dereferenceable(8) %add.ptr.i16)
  tail call void @_ZN2pb10constraint24nullify_tracking_literalERNS_16solver_interfaceE(ptr noundef nonnull align 8 dereferenceable(64) %17, ptr noundef nonnull align 8 dereferenceable(8) %add.ptr.i16)
  %m_obj_size.i.i = getelementptr inbounds i8, ptr %17, i64 40
  %21 = load i64, ptr %m_obj_size.i.i, align 8
  %add.ptr.i.i = getelementptr inbounds i8, ptr %17, i64 -8
  tail call void @_ZN22small_object_allocator10deallocateEmPv(ptr noundef nonnull align 8 dereferenceable(520) %m_allocator, i64 noundef %21, ptr noundef nonnull %add.ptr.i.i)
  br label %for.inc

if.else:                                          ; preds = %for.body
  %cmp8.not = icmp eq ptr %it.023, %it2.022
  br i1 %cmp8.not, label %if.end, label %if.then9

if.then9:                                         ; preds = %if.else
  store ptr %17, ptr %it2.022, align 8
  br label %if.end

if.end:                                           ; preds = %if.then9, %if.else
  %incdec.ptr = getelementptr inbounds i8, ptr %it2.022, i64 8
  br label %for.inc

for.inc:                                          ; preds = %if.then, %if.end
  %it2.1 = phi ptr [ %it2.022, %if.then ], [ %incdec.ptr, %if.end ]
  %incdec.ptr12 = getelementptr inbounds i8, ptr %it.023, i64 8
  %cmp.not = icmp eq ptr %incdec.ptr12, %add.ptr.i
  br i1 %cmp.not, label %for.end, label %for.body, !llvm.loop !104

for.end:                                          ; preds = %for.inc, %for.inc.us, %_ZN6vectorIPN2pb10constraintELb0EjE3endEv.exit
  %it2.0.lcssa.ph = phi ptr [ %0, %_ZN6vectorIPN2pb10constraintELb0EjE3endEv.exit ], [ %it2.1.us, %for.inc.us ], [ %it2.1, %for.inc ]
  %.pr = load ptr, ptr %cs, align 8
  %tobool.not.i = icmp eq ptr %.pr, null
  br i1 %tobool.not.i, label %_ZN6vectorIPN2pb10constraintELb0EjE7set_endEPS2_.exit, label %if.then.i19

if.then.i19:                                      ; preds = %for.end
  %sub.ptr.lhs.cast.i = ptrtoint ptr %it2.0.lcssa.ph to i64
  %sub.ptr.rhs.cast.i = ptrtoint ptr %.pr to i64
  %sub.ptr.sub.i = sub i64 %sub.ptr.lhs.cast.i, %sub.ptr.rhs.cast.i
  %sub.ptr.div.i = lshr exact i64 %sub.ptr.sub.i, 3
  %conv.i = trunc i64 %sub.ptr.div.i to i32
  %arrayidx.i20 = getelementptr inbounds i8, ptr %.pr, i64 -4
  store i32 %conv.i, ptr %arrayidx.i20, align 4
  br label %_ZN6vectorIPN2pb10constraintELb0EjE7set_endEPS2_.exit

_ZN6vectorIPN2pb10constraintELb0EjE7set_endEPS2_.exit: ; preds = %entry, %for.end, %if.then.i19
  ret void
}